target datalayout = "e-m:e-p270:32:32-p271:32:32-p272:64:64-i64:64-i128:128-f80:128-n8:16:32:64-S128"
target triple = "x86_64-pc-linux-gnu"

%"class.cv::utils::trace::details::Region" = type <{ ptr, i32, [4 x i8] }>
%"class.std::__cxx11::basic_string" = type { %"struct.std::__cxx11::basic_string<char>::_Alloc_hider", i64, %union.anon }
%"struct.std::__cxx11::basic_string<char>::_Alloc_hider" = type { ptr }
%union.anon = type { i64, [8 x i8] }
%"class.std::allocator.37" = type { i8 }
%"class.cv::Size_" = type { i32, i32 }
%"class.std::__shared_count" = type { ptr }
%"class.cv::CascadeClassifier" = type { %"struct.cv::Ptr.108" }
%"struct.cv::Ptr.108" = type { %"class.std::shared_ptr.109" }
%"class.std::shared_ptr.109" = type { %"class.std::__shared_ptr.110" }
%"class.std::__shared_ptr.110" = type { ptr, %"class.std::__shared_count" }

@.str.1 = private unnamed_addr constant [131 x i8] c"generated/home/dtcxzyw/WorkSpace/Projects/compilers/llvm-opt-benchmark/bench/opencv/opencv/modules/objdetect/src/cascadedetect.cpp\00", align 1
@__func__._ZN2cv21CascadeClassifierImpl16detectMultiScaleERKNS_11_InputArrayERSt6vectorINS_5Rect_IiEESaIS6_EERS4_IiSaIiEERS4_IdSaIdEEdiiNS_5Size_IiEESH_b = private unnamed_addr constant [17 x i8] c"detectMultiScale\00", align 1
@.str.65 = private unnamed_addr constant [9 x i8] c"!empty()\00", align 1

; Function Attrs: mustprogress nounwind uwtable
define linkonce_odr hidden void @_ZNSt15__new_allocatorIcE10deallocateEPcm(ptr noundef nonnull align 1 dereferenceable(1) %0, ptr noundef %1, i64 noundef %2) #6 comdat align 2 {
  %4 = alloca ptr, align 8
  %5 = alloca ptr, align 8
  %6 = alloca i64, align 8
  store ptr %0, ptr %4, align 8, !tbaa !638
  store ptr %1, ptr %5, align 8, !tbaa !229
  store i64 %2, ptr %6, align 8, !tbaa !16
  %7 = load ptr, ptr %5, align 8, !tbaa !229
  call void @_ZdlPv(ptr noundef %7) #25
  ret void
}

; Function Attrs: mustprogress nounwind uwtable
define linkonce_odr hidden noundef ptr @_ZNSt19__ptr_traits_ptr_toIPKcS0_Lb0EE10pointer_toERS0_(ptr noundef nonnull align 1 dereferenceable(1) %0) #6 comdat align 2 {
  %2 = alloca ptr, align 8
  store ptr %0, ptr %2, align 8, !tbaa !229
  %3 = load ptr, ptr %2, align 8, !tbaa !229
  ret ptr %3
}

; Function Attrs: mustprogress uwtable
define linkonce_odr hidden void @_ZNSt16allocator_traitsISaIcEE10deallocateERS0_Pcm(ptr noundef nonnull align 1 dereferenceable(1) %0, ptr noundef %1, i64 noundef %2) #4 comdat align 2 {
  %4 = alloca ptr, align 8
  %5 = alloca ptr, align 8
  %6 = alloca i64, align 8
  store ptr %0, ptr %4, align 8, !tbaa !225
  store ptr %1, ptr %5, align 8, !tbaa !229
  store i64 %2, ptr %6, align 8, !tbaa !16
  %7 = load ptr, ptr %4, align 8, !tbaa !225
  %8 = load ptr, ptr %5, align 8, !tbaa !229
  %9 = load i64, ptr %6, align 8, !tbaa !16
  call void @_ZNSt15__new_allocatorIcE10deallocateEPcm(ptr noundef nonnull align 1 dereferenceable(1) %7, ptr noundef %8, i64 noundef %9)
  ret void
}

; Function Attrs: mustprogress nounwind uwtable
define available_externally noundef nonnull align 1 dereferenceable(1) ptr @_ZNSt7__cxx1112basic_stringIcSt11char_traitsIcESaIcEE16_M_get_allocatorEv(ptr noundef nonnull align 8 dereferenceable(32) %0) #6 align 2 {
  %2 = alloca ptr, align 8
  store ptr %0, ptr %2, align 8, !tbaa !227
  %3 = load ptr, ptr %2, align 8
  %4 = getelementptr inbounds nuw %"class.std::__cxx11::basic_string", ptr %3, i32 0, i32 0
  ret ptr %4
}

; Function Attrs: mustprogress nounwind uwtable
define available_externally noundef ptr @_ZNKSt7__cxx1112basic_stringIcSt11char_traitsIcESaIcEE13_M_local_dataEv(ptr noundef nonnull align 8 dereferenceable(32) %0) #6 align 2 {
  %2 = alloca ptr, align 8
  store ptr %0, ptr %2, align 8, !tbaa !227
  %3 = load ptr, ptr %2, align 8
  %4 = getelementptr inbounds nuw %"class.std::__cxx11::basic_string", ptr %3, i32 0, i32 2
  %5 = getelementptr inbounds [16 x i8], ptr %4, i64 0, i64 0
  %6 = call noundef ptr @_ZNSt19__ptr_traits_ptr_toIPKcS0_Lb0EE10pointer_toERS0_(ptr noundef nonnull align 1 dereferenceable(1) %5) #3
  ret ptr %6
}

; Function Attrs: mustprogress nounwind uwtable
define available_externally noundef ptr @_ZNKSt7__cxx1112basic_stringIcSt11char_traitsIcESaIcEE7_M_dataEv(ptr noundef nonnull align 8 dereferenceable(32) %0) #6 align 2 {
  %2 = alloca ptr, align 8
  store ptr %0, ptr %2, align 8, !tbaa !227
  %3 = load ptr, ptr %2, align 8
  %4 = getelementptr inbounds nuw %"class.std::__cxx11::basic_string", ptr %3, i32 0, i32 0
  %5 = getelementptr inbounds nuw %"struct.std::__cxx11::basic_string<char>::_Alloc_hider", ptr %4, i32 0, i32 0
  %6 = load ptr, ptr %5, align 8, !tbaa !643
  ret ptr %6
}

; Function Attrs: mustprogress nounwind uwtable
define available_externally void @_ZNSt7__cxx1112basic_stringIcSt11char_traitsIcESaIcEE10_M_destroyEm(ptr noundef nonnull align 8 dereferenceable(32) %0, i64 noundef %1) #6 align 2 personality ptr @__gxx_personality_v0 {
  %3 = alloca ptr, align 8
  %4 = alloca i64, align 8
  %5 = alloca ptr, align 8
  %6 = alloca i32, align 4
  store ptr %0, ptr %3, align 8, !tbaa !227
  store i64 %1, ptr %4, align 8, !tbaa !16
  %7 = load ptr, ptr %3, align 8
  %8 = invoke noundef nonnull align 1 dereferenceable(1) ptr @_ZNSt7__cxx1112basic_stringIcSt11char_traitsIcESaIcEE16_M_get_allocatorEv(ptr noundef nonnull align 8 dereferenceable(32) %7)
          to label %9 unwind label %14

9:                                                ; preds = %2
  %10 = call noundef ptr @_ZNKSt7__cxx1112basic_stringIcSt11char_traitsIcESaIcEE7_M_dataEv(ptr noundef nonnull align 8 dereferenceable(32) %7)
  %11 = load i64, ptr %4, align 8, !tbaa !16
  %12 = add i64 %11, 1
  invoke void @_ZNSt16allocator_traitsISaIcEE10deallocateERS0_Pcm(ptr noundef nonnull align 1 dereferenceable(1) %8, ptr noundef %10, i64 noundef %12)
          to label %13 unwind label %14

13:                                               ; preds = %9
  ret void

14:                                               ; preds = %9, %2
  %15 = landingpad { ptr, i32 }
          filter [0 x ptr] zeroinitializer
  %16 = extractvalue { ptr, i32 } %15, 0
  store ptr %16, ptr %5, align 8
  %17 = extractvalue { ptr, i32 } %15, 1
  store i32 %17, ptr %6, align 4
  br label %18

18:                                               ; preds = %14
  %19 = load ptr, ptr %5, align 8
  call void @__cxa_call_unexpected(ptr %19) #23
  unreachable
}

; Function Attrs: mustprogress uwtable
define available_externally noundef zeroext i1 @_ZNKSt7__cxx1112basic_stringIcSt11char_traitsIcESaIcEE11_M_is_localEv(ptr noundef nonnull align 8 dereferenceable(32) %0) #4 align 2 {
  %2 = alloca i1, align 1
  %3 = alloca ptr, align 8
  store ptr %0, ptr %3, align 8, !tbaa !227
  %4 = load ptr, ptr %3, align 8
  %5 = call noundef ptr @_ZNKSt7__cxx1112basic_stringIcSt11char_traitsIcESaIcEE7_M_dataEv(ptr noundef nonnull align 8 dereferenceable(32) %4)
  %6 = call noundef ptr @_ZNKSt7__cxx1112basic_stringIcSt11char_traitsIcESaIcEE13_M_local_dataEv(ptr noundef nonnull align 8 dereferenceable(32) %4)
  %7 = icmp eq ptr %5, %6
  br i1 %7, label %8, label %14

8:                                                ; preds = %1
  %9 = getelementptr inbounds nuw %"class.std::__cxx11::basic_string", ptr %4, i32 0, i32 1
  %10 = load i64, ptr %9, align 8, !tbaa !640
  %11 = icmp ugt i64 %10, 15
  br i1 %11, label %12, label %13

12:                                               ; preds = %8
  unreachable

13:                                               ; preds = %8
  store i1 true, ptr %2, align 1
  br label %15

14:                                               ; preds = %1
  store i1 false, ptr %2, align 1
  br label %15

15:                                               ; preds = %14, %13
  %16 = load i1, ptr %2, align 1
  ret i1 %16
}

; Function Attrs: mustprogress nounwind uwtable
define linkonce_odr hidden noundef ptr @_ZNKSt12__shared_ptrIN2cv21BaseCascadeClassifierELN9__gnu_cxx12_Lock_policyE2EE3getEv(ptr noundef nonnull align 8 dereferenceable(16) %0) #6 comdat align 2 {
  %2 = alloca ptr, align 8
  store ptr %0, ptr %2, align 8, !tbaa !1017
  %3 = load ptr, ptr %2, align 8
  %4 = getelementptr inbounds nuw %"class.std::__shared_ptr.110", ptr %3, i32 0, i32 0
  %5 = load ptr, ptr %4, align 8, !tbaa !1019
  ret ptr %5
}

; Function Attrs: mustprogress uwtable
define available_externally void @_ZNSt7__cxx1112basic_stringIcSt11char_traitsIcESaIcEE10_M_disposeEv(ptr noundef nonnull align 8 dereferenceable(32) %0) #4 align 2 {
  %2 = alloca ptr, align 8
  store ptr %0, ptr %2, align 8, !tbaa !227
  %3 = load ptr, ptr %2, align 8
  %4 = call noundef zeroext i1 @_ZNKSt7__cxx1112basic_stringIcSt11char_traitsIcESaIcEE11_M_is_localEv(ptr noundef nonnull align 8 dereferenceable(32) %3)
  br i1 %4, label %8, label %5

5:                                                ; preds = %1
  %6 = getelementptr inbounds nuw %"class.std::__cxx11::basic_string", ptr %3, i32 0, i32 2
  %7 = load i64, ptr %6, align 8, !tbaa !163
  call void @_ZNSt7__cxx1112basic_stringIcSt11char_traitsIcESaIcEE10_M_destroyEm(ptr noundef nonnull align 8 dereferenceable(32) %3, i64 noundef %7) #3
  br label %8

8:                                                ; preds = %5, %1
  ret void
}

; Function Attrs: mustprogress nounwind uwtable
define linkonce_odr hidden void @_ZNSt15__new_allocatorIcEC2Ev(ptr noundef nonnull align 1 dereferenceable(1) %0) unnamed_addr #6 comdat align 2 {
  %2 = alloca ptr, align 8
  store ptr %0, ptr %2, align 8, !tbaa !638
  ret void
}

; Function Attrs: inlinehint mustprogress nounwind uwtable
define linkonce_odr hidden noundef zeroext i1 @_ZNK2cv3PtrINS_21BaseCascadeClassifierEE5emptyEv(ptr noundef nonnull align 8 dereferenceable(16) %0) #9 comdat align 2 {
  %2 = alloca ptr, align 8
  store ptr %0, ptr %2, align 8, !tbaa !450
  %3 = load ptr, ptr %2, align 8
  %4 = call noundef ptr @_ZNKSt12__shared_ptrIN2cv21BaseCascadeClassifierELN9__gnu_cxx12_Lock_policyE2EE3getEv(ptr noundef nonnull align 8 dereferenceable(16) %3) #3
  %5 = icmp eq ptr %4, null
  ret i1 %5
}

; Function Attrs: mustprogress nounwind uwtable
define linkonce_odr hidden noundef ptr @_ZNK2cv3PtrINS_21BaseCascadeClassifierEEptEv(ptr noundef nonnull align 8 dereferenceable(16) %0) #6 comdat align 2 {
  %2 = alloca ptr, align 8
  store ptr %0, ptr %2, align 8, !tbaa !450
  %3 = load ptr, ptr %2, align 8
  %4 = call noundef ptr @_ZNKSt12__shared_ptrIN2cv21BaseCascadeClassifierELN9__gnu_cxx12_Lock_policyE2EE3getEv(ptr noundef nonnull align 8 dereferenceable(16) %3) #3
  ret ptr %4
}

; Function Attrs: mustprogress nounwind uwtable
define linkonce_odr hidden void @_ZNSt15__new_allocatorIcED2Ev(ptr noundef nonnull align 1 dereferenceable(1) %0) unnamed_addr #6 comdat align 2 {
  %2 = alloca ptr, align 8
  store ptr %0, ptr %2, align 8, !tbaa !638
  ret void
}

; Function Attrs: mustprogress nounwind uwtable
define available_externally void @_ZNSt7__cxx1112basic_stringIcSt11char_traitsIcESaIcEED2Ev(ptr noundef nonnull align 8 dereferenceable(32) %0) unnamed_addr #6 align 2 personality ptr @__gxx_personality_v0 {
  %2 = alloca ptr, align 8
  store ptr %0, ptr %2, align 8, !tbaa !227
  %3 = load ptr, ptr %2, align 8
  invoke void @_ZNSt7__cxx1112basic_stringIcSt11char_traitsIcESaIcEE10_M_disposeEv(ptr noundef nonnull align 8 dereferenceable(32) %3)
          to label %4 unwind label %6

4:                                                ; preds = %1
  %5 = getelementptr inbounds nuw %"class.std::__cxx11::basic_string", ptr %3, i32 0, i32 0
  call void @_ZNSt15__new_allocatorIcED2Ev(ptr noundef nonnull align 8 dereferenceable(8) %5) #3
  ret void

6:                                                ; preds = %1
  %7 = landingpad { ptr, i32 }
          catch ptr null
  %8 = extractvalue { ptr, i32 } %7, 0
  call void @__clang_call_terminate(ptr %8) #24
  unreachable
}

; Function Attrs: mustprogress nounwind uwtable
define available_externally void @_ZNSaIcEC2Ev(ptr noundef nonnull align 1 dereferenceable(1) %0) unnamed_addr #6 align 2 {
  %2 = alloca ptr, align 8
  store ptr %0, ptr %2, align 8, !tbaa !225
  %3 = load ptr, ptr %2, align 8
  call void @_ZNSt15__new_allocatorIcEC2Ev(ptr noundef nonnull align 1 dereferenceable(1) %3) #3
  ret void
}

; Function Attrs: mustprogress uwtable
define noundef zeroext i1 @_ZNK2cv17CascadeClassifier5emptyEv(ptr noundef nonnull align 8 dereferenceable(16) %0) #4 align 2 {
  %2 = alloca ptr, align 8
  store ptr %0, ptr %2, align 8, !tbaa !448
  %3 = load ptr, ptr %2, align 8
  %4 = getelementptr inbounds nuw %"class.cv::CascadeClassifier", ptr %3, i32 0, i32 0
  %5 = call noundef zeroext i1 @_ZNK2cv3PtrINS_21BaseCascadeClassifierEE5emptyEv(ptr noundef nonnull align 8 dereferenceable(16) %4)
  br i1 %5, label %13, label %6

6:                                                ; preds = %1
  %7 = getelementptr inbounds nuw %"class.cv::CascadeClassifier", ptr %3, i32 0, i32 0
  %8 = call noundef ptr @_ZNK2cv3PtrINS_21BaseCascadeClassifierEEptEv(ptr noundef nonnull align 8 dereferenceable(16) %7) #3
  %9 = load ptr, ptr %8, align 8, !tbaa !98
  %10 = getelementptr inbounds ptr, ptr %9, i64 5
  %11 = load ptr, ptr %10, align 8
  %12 = call noundef zeroext i1 %11(ptr noundef nonnull align 8 dereferenceable(8) %8)
  br label %13

13:                                               ; preds = %6, %1
  %14 = phi i1 [ true, %1 ], [ %12, %6 ]
  ret i1 %14
}

; Function Attrs: mustprogress uwtable
define void @_ZN2cv17CascadeClassifier16detectMultiScaleERKNS_11_InputArrayERSt6vectorINS_5Rect_IiEESaIS6_EEdiiNS_5Size_IiEESB_(ptr noundef nonnull align 8 dereferenceable(16) %0, ptr noundef nonnull align 8 dereferenceable(24) %1, ptr noundef nonnull align 8 dereferenceable(24) %2, double noundef %3, i32 noundef %4, i32 noundef %5, i64 %6, i64 %7) #4 align 2 personality ptr @__gxx_personality_v0 {
  %9 = alloca %"class.cv::Size_", align 4
  %10 = alloca %"class.cv::Size_", align 4
  %11 = alloca ptr, align 8
  %12 = alloca ptr, align 8
  %13 = alloca ptr, align 8
  %14 = alloca double, align 8
  %15 = alloca i32, align 4
  %16 = alloca i32, align 4
  %17 = alloca %"class.cv::utils::trace::details::Region", align 8
  %18 = alloca ptr, align 8
  %19 = alloca i32, align 4
  %20 = alloca %"class.std::__cxx11::basic_string", align 8
  %21 = alloca %"class.std::allocator.37", align 1
  %22 = alloca %"class.cv::Size_", align 4
  %23 = alloca %"class.cv::Size_", align 4
  %24 = alloca %"class.cv::Size_", align 4
  store i64 %6, ptr %9, align 4
  store i64 %7, ptr %10, align 4
  store ptr %0, ptr %11, align 8, !tbaa !448
  store ptr %1, ptr %12, align 8, !tbaa !164
  store ptr %2, ptr %13, align 8, !tbaa !3
  store double %3, ptr %14, align 8, !tbaa !10
  store i32 %4, ptr %15, align 4, !tbaa !8
  store i32 %5, ptr %16, align 4, !tbaa !8
  %25 = load ptr, ptr %11, align 8
  call void @llvm.lifetime.start.p0(i64 16, ptr %17) #3
  call void @_ZN2cv5utils5trace7details6RegionC1ERKNS3_21LocationStaticStorageE(ptr noundef nonnull align 8 dereferenceable(12) %17, ptr noundef nonnull align 8 dereferenceable(32) @_ZZN2cv17CascadeClassifier16detectMultiScaleERKNS_11_InputArrayERSt6vectorINS_5Rect_IiEESaIS6_EEdiiNS_5Size_IiEESB_E26__cv_trace_location_fn1687)
  br label %26

26:                                               ; preds = %8
  %27 = invoke noundef zeroext i1 @_ZNK2cv17CascadeClassifier5emptyEv(ptr noundef nonnull align 8 dereferenceable(16) %25)
          to label %28 unwind label %30

28:                                               ; preds = %26
  br i1 %27, label %34, label %29

29:                                               ; preds = %28
  br label %46

30:                                               ; preds = %64, %61, %48, %26
  %31 = landingpad { ptr, i32 }
          cleanup
  %32 = extractvalue { ptr, i32 } %31, 0
  store ptr %32, ptr %18, align 8
  %33 = extractvalue { ptr, i32 } %31, 1
  store i32 %33, ptr %19, align 4
  br label %68

34:                                               ; preds = %28
  call void @llvm.lifetime.start.p0(i64 32, ptr %20) #3
  call void @llvm.lifetime.start.p0(i64 1, ptr %21) #3
  call void @_ZNSaIcEC2Ev(ptr noundef nonnull align 1 dereferenceable(1) %21) #3
  invoke void @_ZNSt7__cxx1112basic_stringIcSt11char_traitsIcESaIcEEC2EPKcRKS3_(ptr noundef nonnull align 8 dereferenceable(32) %20, ptr noundef @.str.65, ptr noundef nonnull align 1 dereferenceable(1) %21)
          to label %35 unwind label %37

35:                                               ; preds = %34
  invoke void @_ZN2cv5errorEiRKNSt7__cxx1112basic_stringIcSt11char_traitsIcESaIcEEEPKcS9_i(i32 noundef -215, ptr noundef nonnull align 8 dereferenceable(32) %20, ptr noundef @__func__._ZN2cv21CascadeClassifierImpl16detectMultiScaleERKNS_11_InputArrayERSt6vectorINS_5Rect_IiEESaIS6_EERS4_IiSaIiEERS4_IdSaIdEEdiiNS_5Size_IiEESH_b, ptr noundef @.str.1, i32 noundef 1689) #23
          to label %36 unwind label %41

36:                                               ; preds = %35
  unreachable

37:                                               ; preds = %34
  %38 = landingpad { ptr, i32 }
          cleanup
  %39 = extractvalue { ptr, i32 } %38, 0
  store ptr %39, ptr %18, align 8
  %40 = extractvalue { ptr, i32 } %38, 1
  store i32 %40, ptr %19, align 4
  br label %45

41:                                               ; preds = %35
  %42 = landingpad { ptr, i32 }
          cleanup
  %43 = extractvalue { ptr, i32 } %42, 0
  store ptr %43, ptr %18, align 8
  %44 = extractvalue { ptr, i32 } %42, 1
  store i32 %44, ptr %19, align 4
  call void @_ZNSt7__cxx1112basic_stringIcSt11char_traitsIcESaIcEED2Ev(ptr noundef nonnull align 8 dereferenceable(32) %20) #3
  br label %45

45:                                               ; preds = %41, %37
  call void @_ZNSt15__new_allocatorIcED2Ev(ptr noundef nonnull align 1 dereferenceable(1) %21) #3
  call void @llvm.lifetime.end.p0(i64 1, ptr %21) #3
  call void @llvm.lifetime.end.p0(i64 32, ptr %20) #3
  br label %68

46:                                               ; preds = %29
  br label %47

47:                                               ; preds = %46
  br label %48

48:                                               ; preds = %47
  %49 = getelementptr inbounds nuw %"class.cv::CascadeClassifier", ptr %25, i32 0, i32 0
  %50 = call noundef ptr @_ZNK2cv3PtrINS_21BaseCascadeClassifierEEptEv(ptr noundef nonnull align 8 dereferenceable(16) %49) #3
  %51 = load ptr, ptr %12, align 8, !tbaa !164
  %52 = load ptr, ptr %13, align 8, !tbaa !3
  %53 = load double, ptr %14, align 8, !tbaa !10
  %54 = load i32, ptr %15, align 4, !tbaa !8
  %55 = load i32, ptr %16, align 4, !tbaa !8
  call void @llvm.memcpy.p0.p0.i64(ptr align 4 %22, ptr align 4 %9, i64 8, i1 false), !tbaa.struct !81
  call void @llvm.memcpy.p0.p0.i64(ptr align 4 %23, ptr align 4 %10, i64 8, i1 false), !tbaa.struct !81
  %56 = load i64, ptr %22, align 4
  %57 = load i64, ptr %23, align 4
  %58 = load ptr, ptr %50, align 8, !tbaa !98
  %59 = getelementptr inbounds ptr, ptr %58, i64 9
  %60 = load ptr, ptr %59, align 8
  invoke void %60(ptr noundef nonnull align 8 dereferenceable(8) %50, ptr noundef nonnull align 8 dereferenceable(24) %51, ptr noundef nonnull align 8 dereferenceable(24) %52, double noundef %53, i32 noundef %54, i32 noundef %55, i64 %56, i64 %57)
          to label %61 unwind label %30

61:                                               ; preds = %48
  %62 = load ptr, ptr %12, align 8, !tbaa !164
  %63 = invoke i64 @_ZNK2cv11_InputArray4sizeEi(ptr noundef nonnull align 8 dereferenceable(24) %62, i32 noundef -1)
          to label %64 unwind label %30

64:                                               ; preds = %61
  store i64 %63, ptr %24, align 4
  %65 = load ptr, ptr %13, align 8, !tbaa !3
  %66 = load i64, ptr %24, align 4
  invoke void @_ZN2cv11clipObjectsENS_5Size_IiEERSt6vectorINS_5Rect_IiEESaIS4_EEPS2_IiSaIiEEPS2_IdSaIdEE(i64 %66, ptr noundef nonnull align 8 dereferenceable(24) %65, ptr noundef null, ptr noundef null)
          to label %67 unwind label %30

67:                                               ; preds = %64
  call void @_ZN2cv5utils5trace7details6RegionD2Ev(ptr noundef nonnull align 8 dereferenceable(12) %17) #3
  call void @llvm.lifetime.end.p0(i64 16, ptr %17) #3
  ret void

68:                                               ; preds = %45, %30
  call void @_ZN2cv5utils5trace7details6RegionD2Ev(ptr noundef nonnull align 8 dereferenceable(12) %17) #3
  call void @llvm.lifetime.end.p0(i64 16, ptr %17) #3
  br label %69

69:                                               ; preds = %68
  %70 = load ptr, ptr %18, align 8
  %71 = load i32, ptr %19, align 4
  %72 = insertvalue { ptr, i32 } poison, ptr %70, 0
  %73 = insertvalue { ptr, i32 } %72, i32 %71, 1
  resume { ptr, i32 } %73
}