; Function Attrs: mustprogress uwtable
define void @_ZN2cv17CascadeClassifier16detectMultiScaleERKNS_11_InputArrayERSt6vectorINS_5Rect_IiEESaIS6_EEdiiNS_5Size_IiEESB_(ptr noundef nonnull readonly align 8 captures(none) dereferenceable(16) %0, ptr noundef nonnull align 8 dereferenceable(24) %1, ptr noundef nonnull align 8 dereferenceable(24) %2, double noundef %3, i32 noundef %4, i32 noundef %5, i64 %6, i64 %7) local_unnamed_addr #5 align 2 personality ptr @__gxx_personality_v0 {
  %9 = alloca %"class.cv::utils::trace::details::Region", align 8
  %10 = alloca %"class.std::__cxx11::basic_string", align 8
  %11 = alloca %"class.std::allocator.37", align 1
  call void @llvm.lifetime.start.p0(i64 16, ptr nonnull %9) #32
  call void @_ZN2cv5utils5trace7details6RegionC1ERKNS3_21LocationStaticStorageE(ptr noundef nonnull align 8 dereferenceable(12) %9, ptr noundef nonnull align 8 dereferenceable(32) @_ZZN2cv17CascadeClassifier16detectMultiScaleERKNS_11_InputArrayERSt6vectorINS_5Rect_IiEESaIS6_EEdiiNS_5Size_IiEESB_E26__cv_trace_location_fn1687)
  %12 = load ptr, ptr %0, align 8, !tbaa !488
  %13 = icmp eq ptr %12, null
  br i1 %13, label %_ZNK2cv17CascadeClassifier5emptyEv.exit.thread, label %14

14:                                               ; preds = %8
  %15 = load ptr, ptr %12, align 8, !tbaa !80
  %16 = getelementptr inbounds nuw i8, ptr %15, i64 40
  %17 = load ptr, ptr %16, align 8
  %18 = invoke noundef zeroext i1 %17(ptr noundef nonnull align 8 dereferenceable(8) %12)
          to label %_ZNK2cv17CascadeClassifier5emptyEv.exit unwind label %19

_ZNK2cv17CascadeClassifier5emptyEv.exit:          ; preds = %14
  br i1 %18, label %_ZNK2cv17CascadeClassifier5emptyEv.exit.thread, label %33

19:                                               ; preds = %14, %40, %38, %33
  %20 = landingpad { ptr, i32 }
          cleanup
  br label %48

_ZNK2cv17CascadeClassifier5emptyEv.exit.thread:   ; preds = %8, %_ZNK2cv17CascadeClassifier5emptyEv.exit
  call void @llvm.lifetime.start.p0(i64 32, ptr nonnull %10) #32
  call void @llvm.lifetime.start.p0(i64 1, ptr nonnull %11) #32
  invoke void @_ZNSt7__cxx1112basic_stringIcSt11char_traitsIcESaIcEEC2EPKcRKS3_(ptr noundef nonnull align 8 dereferenceable(32) %10, ptr noundef nonnull @.str.65, ptr noundef nonnull align 1 dereferenceable(1) %11)
          to label %21 unwind label %23

21:                                               ; preds = %_ZNK2cv17CascadeClassifier5emptyEv.exit.thread
  invoke void @_ZN2cv5errorEiRKNSt7__cxx1112basic_stringIcSt11char_traitsIcESaIcEEEPKcS9_i(i32 noundef -215, ptr noundef nonnull align 8 dereferenceable(32) %10, ptr noundef nonnull @__func__._ZN2cv21CascadeClassifierImpl16detectMultiScaleERKNS_11_InputArrayERSt6vectorINS_5Rect_IiEESaIS6_EERS4_IiSaIiEERS4_IdSaIdEEdiiNS_5Size_IiEESH_b, ptr noundef nonnull @.str.1, i32 noundef 1689) #33
          to label %22 unwind label %25

22:                                               ; preds = %21
  unreachable

23:                                               ; preds = %_ZNK2cv17CascadeClassifier5emptyEv.exit.thread
  %24 = landingpad { ptr, i32 }
          cleanup
  br label %_ZNSt7__cxx1112basic_stringIcSt11char_traitsIcESaIcEED2Ev.exit

25:                                               ; preds = %21
  %26 = landingpad { ptr, i32 }
          cleanup
  %27 = load ptr, ptr %10, align 8, !tbaa !57
  %28 = getelementptr inbounds nuw i8, ptr %10, i64 16
  %29 = icmp eq ptr %27, %28
  br i1 %29, label %_ZNKSt7__cxx1112basic_stringIcSt11char_traitsIcESaIcEE11_M_is_localEv.exit.thread.i.i, label %_ZNKSt7__cxx1112basic_stringIcSt11char_traitsIcESaIcEE11_M_is_localEv.exit.i.i

_ZNKSt7__cxx1112basic_stringIcSt11char_traitsIcESaIcEE11_M_is_localEv.exit.thread.i.i: ; preds = %25
  %30 = getelementptr inbounds nuw i8, ptr %10, i64 8
  %31 = load i64, ptr %30, align 8, !tbaa !62
  %32 = icmp ult i64 %31, 16
  call void @llvm.assume(i1 %32)
  br label %_ZNSt7__cxx1112basic_stringIcSt11char_traitsIcESaIcEED2Ev.exit

_ZNKSt7__cxx1112basic_stringIcSt11char_traitsIcESaIcEE11_M_is_localEv.exit.i.i: ; preds = %25
  call void @_ZdlPv(ptr noundef %27) #35
  br label %_ZNSt7__cxx1112basic_stringIcSt11char_traitsIcESaIcEED2Ev.exit

_ZNSt7__cxx1112basic_stringIcSt11char_traitsIcESaIcEED2Ev.exit: ; preds = %_ZNKSt7__cxx1112basic_stringIcSt11char_traitsIcESaIcEE11_M_is_localEv.exit.i.i, %_ZNKSt7__cxx1112basic_stringIcSt11char_traitsIcESaIcEE11_M_is_localEv.exit.thread.i.i, %23
  %.pn = phi { ptr, i32 } [ %24, %23 ], [ %26, %_ZNKSt7__cxx1112basic_stringIcSt11char_traitsIcESaIcEE11_M_is_localEv.exit.thread.i.i ], [ %26, %_ZNKSt7__cxx1112basic_stringIcSt11char_traitsIcESaIcEE11_M_is_localEv.exit.i.i ]
  call void @llvm.lifetime.end.p0(i64 1, ptr nonnull %11) #32
  call void @llvm.lifetime.end.p0(i64 32, ptr nonnull %10) #32
  br label %48

33:                                               ; preds = %_ZNK2cv17CascadeClassifier5emptyEv.exit
  %34 = load ptr, ptr %0, align 8, !tbaa !488
  %35 = load ptr, ptr %34, align 8, !tbaa !80
  %36 = getelementptr inbounds nuw i8, ptr %35, i64 72
  %37 = load ptr, ptr %36, align 8
  invoke void %37(ptr noundef nonnull align 8 dereferenceable(8) %34, ptr noundef nonnull align 8 dereferenceable(24) %1, ptr noundef nonnull align 8 dereferenceable(24) %2, double noundef %3, i32 noundef %4, i32 noundef %5, i64 %6, i64 %7)
          to label %38 unwind label %19

38:                                               ; preds = %33
  %39 = invoke i64 @_ZNK2cv11_InputArray4sizeEi(ptr noundef nonnull align 8 dereferenceable(24) %1, i32 noundef -1)
          to label %40 unwind label %19

40:                                               ; preds = %38
  invoke void @_ZN2cv11clipObjectsENS_5Size_IiEERSt6vectorINS_5Rect_IiEESaIS4_EEPS2_IiSaIiEEPS2_IdSaIdEE(i64 %39, ptr noundef nonnull align 8 dereferenceable(24) %2, ptr noundef null, ptr noundef null)
          to label %41 unwind label %19

41:                                               ; preds = %40
  %42 = getelementptr inbounds nuw i8, ptr %9, i64 8
  %43 = load i32, ptr %42, align 8, !tbaa !47
  %.not.i = icmp eq i32 %43, 0
  br i1 %.not.i, label %_ZN2cv5utils5trace7details6RegionD2Ev.exit, label %44

44:                                               ; preds = %41
  invoke void @_ZN2cv5utils5trace7details6Region7destroyEv(ptr noundef nonnull align 8 dereferenceable(12) %9)
          to label %_ZN2cv5utils5trace7details6RegionD2Ev.exit unwind label %45

45:                                               ; preds = %44
  %46 = landingpad { ptr, i32 }
          catch ptr null
  %47 = extractvalue { ptr, i32 } %46, 0
  call void @__clang_call_terminate(ptr %47) #36
  unreachable

_ZN2cv5utils5trace7details6RegionD2Ev.exit:       ; preds = %41, %44
  call void @llvm.lifetime.end.p0(i64 16, ptr nonnull %9) #32
  ret void

48:                                               ; preds = %_ZNSt7__cxx1112basic_stringIcSt11char_traitsIcESaIcEED2Ev.exit, %19
  %.pn.pn = phi { ptr, i32 } [ %.pn, %_ZNSt7__cxx1112basic_stringIcSt11char_traitsIcESaIcEED2Ev.exit ], [ %20, %19 ]
  call void @_ZN2cv5utils5trace7details6RegionD2Ev(ptr noundef nonnull align 8 dereferenceable(12) %9) #32
  call void @llvm.lifetime.end.p0(i64 16, ptr nonnull %9) #32
  resume { ptr, i32 } %.pn.pn
}